target datalayout = "e-m:e-p270:32:32-p271:32:32-p272:64:64-i64:64-i128:128-f80:128-n8:16:32:64-S128"
target triple = "x86_64-pc-linux-gnu"

%struct.AVRational = type { i32, i32 }
%struct.AVCodecContext = type { ptr, i32, i32, ptr, i32, i32, ptr, ptr, ptr, i64, i32, i32, ptr, i32, %struct.AVRational, %struct.AVRational, %struct.AVRational, i32, i32, i32, i32, i32, %struct.AVRational, i32, i32, i32, i32, i32, i32, i32, i32, i32, i32, i32, ptr, ptr, i32, float, float, float, float, float, float, float, float, float, i32, i32, i32, i32, i32, i32, i32, i32, i32, i32, i32, i32, ptr, ptr, ptr, i32, i32, i32, i32, i32, i32, i32, i32, i32, i32, %struct.AVChannelLayout, i32, i32, i32, i32, i32, i32, i32, i32, ptr, i32, i32, i32, float, float, i32, i32, i32, i32, i32, ptr, i64, i64, float, float, i32, i32, ptr, ptr, i32, i32, i32, i32, i32, ptr, ptr, ptr, ptr, i32, i32, [8 x i64], i32, i32, i32, i32, i32, i32, i32, ptr, ptr, i32, i32, i32, i32, i32, i32, i32, i32, i32, i32, ptr, ptr, i32, i32, ptr, ptr, ptr, ptr, i32, i32, i64, i32, i32, i64, ptr, i64, ptr, i32, ptr, i32 }
%struct.AVChannelLayout = type { i32, i32, %union.anon, ptr }
%union.anon = type { i64 }
%struct.AVCodecInternal = type { i32, i32, i32, ptr, ptr, ptr, ptr, ptr, ptr, ptr, i32, ptr, ptr, ptr, i32, i32, ptr, i32, ptr, ptr, i32, i32 }
%struct.DecodeContext = type { %struct.AVCodecInternal, i32, i32, i32, i32, i64, i64, i64, i64, i64, ptr, i32, i32, i32 }
%struct.AVFrame = type { [8 x ptr], [8 x i32], ptr, i32, i32, i32, i32, i32, %struct.AVRational, i64, i64, %struct.AVRational, i32, ptr, i32, i32, [8 x ptr], ptr, i32, ptr, i32, i32, i32, i32, i32, i32, i32, i64, ptr, i32, ptr, ptr, i64, i64, i64, i64, ptr, %struct.AVChannelLayout, i64 }

; Function Attrs: inlinehint nounwind uwtable
define internal ptr @av_frame_side_data_get(ptr noundef %0, i32 noundef %1, i32 noundef %2) #7 {
  %4 = alloca ptr, align 8
  %5 = alloca i32, align 4
  %6 = alloca i32, align 4
  store ptr %0, ptr %4, align 8, !tbaa !305
  store i32 %1, ptr %5, align 4, !tbaa !41
  store i32 %2, ptr %6, align 4, !tbaa !41
  %7 = load ptr, ptr %4, align 8, !tbaa !305
  %8 = load i32, ptr %5, align 4, !tbaa !41
  %9 = load i32, ptr %6, align 4, !tbaa !41
  %10 = call ptr @av_frame_side_data_get_c(ptr noundef %7, i32 noundef %8, i32 noundef %9)
  ret ptr %10
}

; Function Attrs: nounwind uwtable
define internal ptr @decode_ctx(ptr noundef %0) #0 {
  %2 = alloca ptr, align 8
  store ptr %0, ptr %2, align 8, !tbaa !31
  %3 = load ptr, ptr %2, align 8, !tbaa !31
  ret ptr %3
}

; Function Attrs: nounwind uwtable
define internal i32 @side_data_pref(ptr noundef %0, ptr noundef %1, ptr noundef %2, i32 noundef %3) #0 {
  %5 = alloca i32, align 4
  %6 = alloca ptr, align 8
  %7 = alloca ptr, align 8
  %8 = alloca ptr, align 8
  %9 = alloca i32, align 4
  %10 = alloca ptr, align 8
  %11 = alloca i32, align 4
  store ptr %0, ptr %6, align 8, !tbaa !4
  store ptr %1, ptr %7, align 8, !tbaa !306
  store ptr %2, ptr %8, align 8, !tbaa !120
  store i32 %3, ptr %9, align 4, !tbaa !41
  call void @llvm.lifetime.start.p0(i64 8, ptr %10) #11
  %12 = load ptr, ptr %6, align 8, !tbaa !4
  %13 = getelementptr inbounds nuw %struct.AVCodecContext, ptr %12, i32 0, i32 7
  %14 = load ptr, ptr %13, align 8, !tbaa !11
  %15 = call ptr @decode_ctx(ptr noundef %14)
  store ptr %15, ptr %10, align 8, !tbaa !32
  %16 = load ptr, ptr %7, align 8, !tbaa !306
  %17 = load ptr, ptr %16, align 8, !tbaa !305
  %18 = load ptr, ptr %8, align 8, !tbaa !120
  %19 = load i32, ptr %18, align 4, !tbaa !41
  %20 = load i32, ptr %9, align 4, !tbaa !41
  %21 = call ptr @av_frame_side_data_get(ptr noundef %17, i32 noundef %19, i32 noundef %20)
  %22 = icmp ne ptr %21, null
  br i1 %22, label %23, label %37

23:                                               ; preds = %4
  %24 = load ptr, ptr %10, align 8, !tbaa !32
  %25 = getelementptr inbounds nuw %struct.DecodeContext, ptr %24, i32 0, i32 9
  %26 = load i64, ptr %25, align 8, !tbaa !293
  %27 = load i32, ptr %9, align 4, !tbaa !41
  %28 = zext i32 %27 to i64
  %29 = shl i64 1, %28
  %30 = and i64 %26, %29
  %31 = icmp ne i64 %30, 0
  br i1 %31, label %32, label %33

32:                                               ; preds = %23
  store i32 1, ptr %5, align 4
  store i32 1, ptr %11, align 4
  br label %38

33:                                               ; preds = %23
  %34 = load ptr, ptr %7, align 8, !tbaa !306
  %35 = load ptr, ptr %8, align 8, !tbaa !120
  %36 = load i32, ptr %9, align 4, !tbaa !41
  call void @av_frame_side_data_remove(ptr noundef %34, ptr noundef %35, i32 noundef %36)
  br label %37

37:                                               ; preds = %33, %4
  store i32 0, ptr %5, align 4
  store i32 1, ptr %11, align 4
  br label %38

38:                                               ; preds = %37, %32
  call void @llvm.lifetime.end.p0(i64 8, ptr %10) #11
  %39 = load i32, ptr %5, align 4
  ret i32 %39
}

; Function Attrs: nounwind uwtable
define i32 @ff_frame_new_side_data(ptr noundef %0, ptr noundef %1, i32 noundef %2, i64 noundef %3, ptr noundef %4) #0 {
  %6 = alloca i32, align 4
  %7 = alloca ptr, align 8
  %8 = alloca ptr, align 8
  %9 = alloca i32, align 4
  %10 = alloca i64, align 8
  %11 = alloca ptr, align 8
  %12 = alloca ptr, align 8
  %13 = alloca i32, align 4
  store ptr %0, ptr %7, align 8, !tbaa !4
  store ptr %1, ptr %8, align 8, !tbaa !51
  store i32 %2, ptr %9, align 4, !tbaa !41
  store i64 %3, ptr %10, align 8, !tbaa !69
  store ptr %4, ptr %11, align 8, !tbaa !305
  call void @llvm.lifetime.start.p0(i64 8, ptr %12) #11
  %14 = load ptr, ptr %7, align 8, !tbaa !4
  %15 = load ptr, ptr %8, align 8, !tbaa !51
  %16 = getelementptr inbounds nuw %struct.AVFrame, ptr %15, i32 0, i32 19
  %17 = load ptr, ptr %8, align 8, !tbaa !51
  %18 = getelementptr inbounds nuw %struct.AVFrame, ptr %17, i32 0, i32 20
  %19 = load i32, ptr %9, align 4, !tbaa !41
  %20 = call i32 @side_data_pref(ptr noundef %14, ptr noundef %16, ptr noundef %18, i32 noundef %19)
  %21 = icmp ne i32 %20, 0
  br i1 %21, label %22, label %28

22:                                               ; preds = %5
  %23 = load ptr, ptr %11, align 8, !tbaa !305
  %24 = icmp ne ptr %23, null
  br i1 %24, label %25, label %27

25:                                               ; preds = %22
  %26 = load ptr, ptr %11, align 8, !tbaa !305
  store ptr null, ptr %26, align 8, !tbaa !74
  br label %27

27:                                               ; preds = %25, %22
  store i32 0, ptr %6, align 4
  store i32 1, ptr %13, align 4
  br label %42

28:                                               ; preds = %5
  %29 = load ptr, ptr %8, align 8, !tbaa !51
  %30 = load i32, ptr %9, align 4, !tbaa !41
  %31 = load i64, ptr %10, align 8, !tbaa !69
  %32 = call ptr @av_frame_new_side_data(ptr noundef %29, i32 noundef %30, i64 noundef %31)
  store ptr %32, ptr %12, align 8, !tbaa !74
  %33 = load ptr, ptr %11, align 8, !tbaa !305
  %34 = icmp ne ptr %33, null
  br i1 %34, label %35, label %38

35:                                               ; preds = %28
  %36 = load ptr, ptr %12, align 8, !tbaa !74
  %37 = load ptr, ptr %11, align 8, !tbaa !305
  store ptr %36, ptr %37, align 8, !tbaa !74
  br label %38

38:                                               ; preds = %35, %28
  %39 = load ptr, ptr %12, align 8, !tbaa !74
  %40 = icmp ne ptr %39, null
  %41 = select i1 %40, i32 0, i32 -12
  store i32 %41, ptr %6, align 4
  store i32 1, ptr %13, align 4
  br label %42

42:                                               ; preds = %38, %27
  call void @llvm.lifetime.end.p0(i64 8, ptr %12) #11
  %43 = load i32, ptr %6, align 4
  ret i32 %43
}