; Function Attrs: nounwind uwtable
define range(i32 -12, 1) i32 @ff_frame_new_side_data(ptr noundef readonly captures(none) %0, ptr noundef %1, i32 noundef %2, i64 noundef %3, ptr noundef writeonly captures(address_is_null) %4) local_unnamed_addr #0 {
  %6 = getelementptr inbounds nuw i8, ptr %1, i64 264
  %7 = getelementptr inbounds nuw i8, ptr %1, i64 272
  %8 = getelementptr i8, ptr %0, i64 40
  %.val = load ptr, ptr %8, align 8, !tbaa !4
  %9 = load ptr, ptr %6, align 8, !tbaa !272
  %10 = load i32, ptr %7, align 4, !tbaa !69
  %11 = tail call ptr @av_frame_side_data_get_c(ptr noundef %9, i32 noundef %10, i32 noundef %2) #10
  %.not.i = icmp eq ptr %11, null
  br i1 %.not.i, label %20, label %12

12:                                               ; preds = %5
  %13 = getelementptr inbounds nuw i8, ptr %.val, i64 200
  %14 = load i64, ptr %13, align 8, !tbaa !262
  %15 = zext nneg i32 %2 to i64
  %16 = shl nuw i64 1, %15
  %17 = and i64 %14, %16
  %.not9.i = icmp eq i64 %17, 0
  br i1 %.not9.i, label %18, label %side_data_pref.exit

18:                                               ; preds = %12
  tail call void @av_frame_side_data_remove(ptr noundef nonnull %6, ptr noundef nonnull %7, i32 noundef %2) #10
  br label %20

side_data_pref.exit:                              ; preds = %12
  %.not16 = icmp eq ptr %4, null
  br i1 %.not16, label %25, label %19

19:                                               ; preds = %side_data_pref.exit
  store ptr null, ptr %4, align 8, !tbaa !212
  br label %25

20:                                               ; preds = %18, %5
  %21 = tail call ptr @av_frame_new_side_data(ptr noundef nonnull %1, i32 noundef %2, i64 noundef %3) #10
  %.not14 = icmp eq ptr %4, null
  br i1 %.not14, label %23, label %22

22:                                               ; preds = %20
  store ptr %21, ptr %4, align 8, !tbaa !212
  br label %23

23:                                               ; preds = %22, %20
  %.not15 = icmp eq ptr %21, null
  %24 = select i1 %.not15, i32 -12, i32 0
  br label %25

25:                                               ; preds = %side_data_pref.exit, %19, %23
  %.0 = phi i32 [ %24, %23 ], [ 0, %19 ], [ 0, %side_data_pref.exit ]
  ret i32 %.0
}